target datalayout = "e-m:e-p270:32:32-p271:32:32-p272:64:64-i64:64-i128:128-f80:128-n8:16:32:64-S128"
target triple = "x86_64-pc-linux-gnu"

%struct.Pxy_t = type { double, double }
%struct.Ppoly_t = type { ptr, i64 }

@stderr = external global ptr, align 8
@.str = private unnamed_addr constant [58 x i8] c"integer overflow when trying to allocate %zu * %zu bytes\0A\00", align 1
@.str.1 = private unnamed_addr constant [49 x i8] c"out of memory when trying to allocate %zu bytes\0A\00", align 1

; Function Attrs: inlinehint nounwind uwtable
define internal ptr @gv_calloc(i64 noundef %0, i64 noundef %1) #3 {
  %3 = alloca i64, align 8
  %4 = alloca i64, align 8
  %5 = alloca ptr, align 8
  store i64 %0, ptr %3, align 8, !tbaa !18
  store i64 %1, ptr %4, align 8, !tbaa !18
  %6 = load i64, ptr %3, align 8, !tbaa !18
  %7 = icmp ugt i64 %6, 0
  br i1 %7, label %8, label %18

8:                                                ; preds = %2
  %9 = load i64, ptr %3, align 8, !tbaa !18
  %10 = udiv i64 -1, %9
  %11 = load i64, ptr %4, align 8, !tbaa !18
  %12 = icmp ult i64 %10, %11
  br i1 %12, label %13, label %18

13:                                               ; preds = %8
  %14 = load ptr, ptr @stderr, align 8, !tbaa !25
  %15 = load i64, ptr %3, align 8, !tbaa !18
  %16 = load i64, ptr %4, align 8, !tbaa !18
  %17 = call i32 (ptr, ptr, ...) @fprintf(ptr noundef %14, ptr noundef @.str, i64 noundef %15, i64 noundef %16) #9
  call void @graphviz_exit(i32 noundef 1) #10
  unreachable

18:                                               ; preds = %8, %2
  call void @llvm.lifetime.start.p0(i64 8, ptr %5) #9
  %19 = load i64, ptr %3, align 8, !tbaa !18
  %20 = load i64, ptr %4, align 8, !tbaa !18
  %21 = call noalias ptr @calloc(i64 noundef %19, i64 noundef %20) #11
  store ptr %21, ptr %5, align 8, !tbaa !13
  %22 = load i64, ptr %3, align 8, !tbaa !18
  %23 = icmp ugt i64 %22, 0
  br i1 %23, label %24, label %36

24:                                               ; preds = %18
  %25 = load i64, ptr %4, align 8, !tbaa !18
  %26 = icmp ugt i64 %25, 0
  br i1 %26, label %27, label %36

27:                                               ; preds = %24
  %28 = load ptr, ptr %5, align 8, !tbaa !13
  %29 = icmp eq ptr %28, null
  br i1 %29, label %30, label %36

30:                                               ; preds = %27
  %31 = load ptr, ptr @stderr, align 8, !tbaa !25
  %32 = load i64, ptr %3, align 8, !tbaa !18
  %33 = load i64, ptr %4, align 8, !tbaa !18
  %34 = mul i64 %32, %33
  %35 = call i32 (ptr, ptr, ...) @fprintf(ptr noundef %31, ptr noundef @.str.1, i64 noundef %34) #9
  call void @graphviz_exit(i32 noundef 1) #10
  unreachable

36:                                               ; preds = %27, %24, %18
  %37 = load ptr, ptr %5, align 8, !tbaa !13
  call void @llvm.lifetime.end.p0(i64 8, ptr %5) #9
  ret ptr %37
}

; Function Attrs: nounwind uwtable
define i32 @Ptriangulate(ptr noundef %0, ptr noundef %1, ptr noundef %2) #0 {
  %4 = alloca i32, align 4
  %5 = alloca ptr, align 8
  %6 = alloca ptr, align 8
  %7 = alloca ptr, align 8
  %8 = alloca ptr, align 8
  %9 = alloca i64, align 8
  %10 = alloca i64, align 8
  %11 = alloca i32, align 4
  store ptr %0, ptr %5, align 8, !tbaa !10
  store ptr %1, ptr %6, align 8, !tbaa !13
  store ptr %2, ptr %7, align 8, !tbaa !13
  call void @llvm.lifetime.start.p0(i64 8, ptr %8) #9
  call void @llvm.lifetime.start.p0(i64 8, ptr %9) #9
  %12 = load ptr, ptr %5, align 8, !tbaa !10
  %13 = getelementptr inbounds nuw %struct.Ppoly_t, ptr %12, i32 0, i32 1
  %14 = load i64, ptr %13, align 8, !tbaa !14
  store i64 %14, ptr %9, align 8, !tbaa !18
  %15 = load i64, ptr %9, align 8, !tbaa !18
  %16 = call ptr @gv_calloc(i64 noundef %15, i64 noundef 8)
  store ptr %16, ptr %8, align 8, !tbaa !19
  call void @llvm.lifetime.start.p0(i64 8, ptr %10) #9
  store i64 0, ptr %10, align 8, !tbaa !18
  br label %17

17:                                               ; preds = %31, %3
  %18 = load i64, ptr %10, align 8, !tbaa !18
  %19 = load i64, ptr %9, align 8, !tbaa !18
  %20 = icmp ult i64 %18, %19
  br i1 %20, label %22, label %21

21:                                               ; preds = %17
  call void @llvm.lifetime.end.p0(i64 8, ptr %10) #9
  br label %34

22:                                               ; preds = %17
  %23 = load ptr, ptr %5, align 8, !tbaa !10
  %24 = getelementptr inbounds nuw %struct.Ppoly_t, ptr %23, i32 0, i32 0
  %25 = load ptr, ptr %24, align 8, !tbaa !21
  %26 = load i64, ptr %10, align 8, !tbaa !18
  %27 = getelementptr inbounds nuw %struct.Pxy_t, ptr %25, i64 %26
  %28 = load ptr, ptr %8, align 8, !tbaa !19
  %29 = load i64, ptr %10, align 8, !tbaa !18
  %30 = getelementptr inbounds nuw ptr, ptr %28, i64 %29
  store ptr %27, ptr %30, align 8, !tbaa !22
  br label %31

31:                                               ; preds = %22
  %32 = load i64, ptr %10, align 8, !tbaa !18
  %33 = add i64 %32, 1
  store i64 %33, ptr %10, align 8, !tbaa !18
  br label %17, !llvm.loop !23

34:                                               ; preds = %21
  %35 = load ptr, ptr %8, align 8, !tbaa !19
  %36 = load i64, ptr %9, align 8, !tbaa !18
  %37 = load ptr, ptr %6, align 8, !tbaa !13
  %38 = load ptr, ptr %7, align 8, !tbaa !13
  %39 = call i32 @triangulate(ptr noundef %35, i64 noundef %36, ptr noundef %37, ptr noundef %38)
  %40 = icmp ne i32 %39, 0
  br i1 %40, label %41, label %43

41:                                               ; preds = %34
  %42 = load ptr, ptr %8, align 8, !tbaa !19
  call void @free(ptr noundef %42) #9
  store i32 1, ptr %4, align 4
  store i32 1, ptr %11, align 4
  br label %45

43:                                               ; preds = %34
  %44 = load ptr, ptr %8, align 8, !tbaa !19
  call void @free(ptr noundef %44) #9
  store i32 0, ptr %4, align 4
  store i32 1, ptr %11, align 4
  br label %45

45:                                               ; preds = %43, %41
  call void @llvm.lifetime.end.p0(i64 8, ptr %9) #9
  call void @llvm.lifetime.end.p0(i64 8, ptr %8) #9
  %46 = load i32, ptr %4, align 4
  ret i32 %46
}