; Function Attrs: nounwind uwtable
define range(i32 0, 2) i32 @Ptriangulate(ptr noundef readonly captures(none) %0, ptr noundef readonly captures(none) %1, ptr noundef %2) local_unnamed_addr #3 {
  %4 = getelementptr inbounds nuw i8, ptr %0, i64 8
  %5 = load i64, ptr %4, align 8, !tbaa !3
  %mul.ov.i = icmp ugt i64 %5, 2305843009213693951
  br i1 %mul.ov.i, label %6, label %9

6:                                                ; preds = %3
  %7 = load ptr, ptr @stderr, align 8, !tbaa !10
  %8 = tail call i32 (ptr, ptr, ...) @fprintf(ptr noundef %7, ptr noundef nonnull @.str, i64 noundef %5, i64 noundef 8) #11
  tail call fastcc void @graphviz_exit() #12
  unreachable

9:                                                ; preds = %3
  %10 = icmp ne i64 %5, 0
  %11 = tail call noalias ptr @calloc(i64 noundef %5, i64 noundef 8) #13
  %12 = icmp eq ptr %11, null
  %or.cond3.i = and i1 %10, %12
  br i1 %or.cond3.i, label %14, label %gv_calloc.exit.preheader

gv_calloc.exit.preheader:                         ; preds = %9
  %.not18 = icmp eq i64 %5, 0
  br i1 %.not18, label %gv_calloc.exit._crit_edge, label %.lr.ph

.lr.ph:                                           ; preds = %gv_calloc.exit.preheader
  %13 = load ptr, ptr %0, align 8, !tbaa !12
  br label %gv_calloc.exit

14:                                               ; preds = %9
  %15 = load ptr, ptr @stderr, align 8, !tbaa !10
  %16 = shl nuw i64 %5, 3
  %17 = tail call i32 (ptr, ptr, ...) @fprintf(ptr noundef %15, ptr noundef nonnull @.str.1, i64 noundef %16) #11
  tail call fastcc void @graphviz_exit() #12
  unreachable

gv_calloc.exit._crit_edge:                        ; preds = %gv_calloc.exit, %gv_calloc.exit.preheader
  %18 = tail call fastcc i32 @triangulate(ptr noundef %11, i64 noundef %5, ptr noundef %1, ptr noundef %2)
  %.not = icmp ne i32 %18, 0
  tail call void @free(ptr noundef %11) #14
  %. = zext i1 %.not to i32
  ret i32 %.

gv_calloc.exit:                                   ; preds = %.lr.ph, %gv_calloc.exit
  %.017 = phi i64 [ 0, %.lr.ph ], [ %21, %gv_calloc.exit ]
  %19 = getelementptr inbounds nuw %struct.Pxy_t, ptr %13, i64 %.017
  %20 = getelementptr inbounds nuw ptr, ptr %11, i64 %.017
  store ptr %19, ptr %20, align 8, !tbaa !13
  %21 = add nuw i64 %.017, 1
  %exitcond.not = icmp eq i64 %21, %5
  br i1 %exitcond.not, label %gv_calloc.exit._crit_edge, label %gv_calloc.exit, !llvm.loop !14
}